; Function Attrs: nounwind uwtable
define ptr @ff_subtitles_queue_insert_bprint(ptr noundef %0, ptr noundef readonly captures(none) %1, i32 noundef %2) local_unnamed_addr #0 {
  %4 = getelementptr i8, ptr %1, i64 8
  %.val = load i32, ptr %4, align 8, !tbaa !37
  %5 = getelementptr i8, ptr %1, i64 12
  %.val5 = load i32, ptr %5, align 4, !tbaa !39
  %.not = icmp ult i32 %.val, %.val5
  br i1 %.not, label %6, label %10

6:                                                ; preds = %3
  %7 = load ptr, ptr %1, align 8, !tbaa !40
  %8 = zext i32 %.val to i64
  %9 = tail call ptr @ff_subtitles_queue_insert(ptr noundef %0, ptr noundef %7, i64 noundef %8, i32 noundef %2)
  br label %10

10:                                               ; preds = %3, %6
  %.0 = phi ptr [ %9, %6 ], [ null, %3 ]
  ret ptr %.0
}